target datalayout = "e-m:e-p270:32:32-p271:32:32-p272:64:64-i64:64-i128:128-f80:128-n8:16:32:64-S128"
target triple = "x86_64-pc-linux-gnu"

@hf_s5066dts_ack_only_rx_lwe = internal global i32 0, align 4
@hf_s5066dts_ack_only_acks = internal global i32 0, align 4

; Function Attrs: null_pointer_is_valid sspstrong uwtable
define internal i32 @dissect_s5066dts_ack_only(ptr noundef %0, i32 noundef %1, ptr noundef %2, i32 noundef %3) #0 {
  %5 = alloca ptr, align 8
  %6 = alloca i32, align 4
  %7 = alloca ptr, align 8
  %8 = alloca i32, align 4
  %9 = alloca i32, align 4
  store ptr %0, ptr %5, align 8
  store i32 %1, ptr %6, align 4
  store ptr %2, ptr %7, align 8
  store i32 %3, ptr %8, align 4
  call void @llvm.lifetime.start.p0(i64 4, ptr %9) #4
  %10 = load i32, ptr %8, align 4
  %11 = sub i32 %10, 7
  store i32 %11, ptr %9, align 4
  %12 = load ptr, ptr %7, align 8
  %13 = load i32, ptr @hf_s5066dts_ack_only_rx_lwe, align 4
  %14 = load ptr, ptr %5, align 8
  %15 = load i32, ptr %6, align 4
  %16 = call ptr @proto_tree_add_item(ptr noundef %12, i32 noundef %13, ptr noundef %14, i32 noundef %15, i32 noundef 1, i32 noundef 0)
  %17 = load i32, ptr %6, align 4
  %18 = add i32 %17, 1
  store i32 %18, ptr %6, align 4
  %19 = load i32, ptr %9, align 4
  %20 = icmp ugt i32 %19, 0
  br i1 %20, label %21, label %31

21:                                               ; preds = %4
  %22 = load ptr, ptr %7, align 8
  %23 = load i32, ptr @hf_s5066dts_ack_only_acks, align 4
  %24 = load ptr, ptr %5, align 8
  %25 = load i32, ptr %6, align 4
  %26 = load i32, ptr %9, align 4
  %27 = call ptr @proto_tree_add_item(ptr noundef %22, i32 noundef %23, ptr noundef %24, i32 noundef %25, i32 noundef %26, i32 noundef 0)
  %28 = load i32, ptr %9, align 4
  %29 = load i32, ptr %6, align 4
  %30 = add i32 %29, %28
  store i32 %30, ptr %6, align 4
  br label %31

31:                                               ; preds = %21, %4
  %32 = load i32, ptr %6, align 4
  call void @llvm.lifetime.end.p0(i64 4, ptr %9) #4
  ret i32 %32
}